target datalayout = "e-m:e-p270:32:32-p271:32:32-p272:64:64-i64:64-i128:128-f80:128-n8:16:32:64-S128"
target triple = "x86_64-pc-linux-gnu"

%struct.ident_t = type { i32, i32, i32, i32, ptr }
%"class.ncnn::Dequantize" = type { %"class.ncnn::Layer", i32, i32, %"class.ncnn::Mat", %"class.ncnn::Mat" }
%"class.ncnn::Layer" = type { ptr, i8, i8, i8, i8, i8, i8, i8, i8, i8, i8, i8, i8, i8, i8, i8, i8, i8, i8, i8, i8, i32, ptr, i32, %"class.std::__cxx11::basic_string", %"class.std::__cxx11::basic_string", %"class.std::vector", %"class.std::vector", %"class.std::vector.3", %"class.std::vector.3" }
%"class.std::__cxx11::basic_string" = type { %"struct.std::__cxx11::basic_string<char>::_Alloc_hider", i64, %union.anon }
%"struct.std::__cxx11::basic_string<char>::_Alloc_hider" = type { ptr }
%union.anon = type { i64, [8 x i8] }
%"class.std::vector" = type { %"struct.std::_Vector_base" }
%"struct.std::_Vector_base" = type { %"struct.std::_Vector_base<int, std::allocator<int>>::_Vector_impl" }
%"struct.std::_Vector_base<int, std::allocator<int>>::_Vector_impl" = type { %"struct.std::_Vector_base<int, std::allocator<int>>::_Vector_impl_data" }
%"struct.std::_Vector_base<int, std::allocator<int>>::_Vector_impl_data" = type { ptr, ptr, ptr }
%"class.std::vector.3" = type { %"struct.std::_Vector_base.4" }
%"struct.std::_Vector_base.4" = type { %"struct.std::_Vector_base<ncnn::Mat, std::allocator<ncnn::Mat>>::_Vector_impl" }
%"struct.std::_Vector_base<ncnn::Mat, std::allocator<ncnn::Mat>>::_Vector_impl" = type { %"struct.std::_Vector_base<ncnn::Mat, std::allocator<ncnn::Mat>>::_Vector_impl_data" }
%"struct.std::_Vector_base<ncnn::Mat, std::allocator<ncnn::Mat>>::_Vector_impl_data" = type { ptr, ptr, ptr }
%"class.ncnn::Mat" = type { ptr, ptr, i64, i32, ptr, i32, i32, i32, i32, i32, i64 }
%"class.ncnn::Option" = type { i8, i32, ptr, ptr, i32, i8, i8, i8, i8, i8, i8, i8, i8, i8, i8, i8, i8, i8, i8, i8, i8, i8, i8, i8, i8, i32, i8, i8, i8, i8, i8, i8, i8, i8, i8, i8, i8, i8 }

@2 = private unnamed_addr constant %struct.ident_t { i32 0, i32 2, i32 0, i32 22, ptr @0 }, align 8

; Function Attrs: alwaysinline mustprogress nounwind uwtable
define linkonce_odr hidden noundef i64 @_ZNK4ncnn3Mat5totalEv(ptr noundef nonnull align 8 dereferenceable(72) %0) #3 comdat align 2 {
  %2 = alloca ptr, align 8
  store ptr %0, ptr %2, align 8, !tbaa !37
  %3 = load ptr, ptr %2, align 8
  %4 = getelementptr inbounds nuw %"class.ncnn::Mat", ptr %3, i32 0, i32 10
  %5 = load i64, ptr %4, align 8, !tbaa !61
  %6 = getelementptr inbounds nuw %"class.ncnn::Mat", ptr %3, i32 0, i32 9
  %7 = load i32, ptr %6, align 8, !tbaa !44
  %8 = sext i32 %7 to i64
  %9 = mul i64 %5, %8
  ret i64 %9
}

; Function Attrs: mustprogress nounwind uwtable
define internal void @_ZN4ncnnL10dequantizeEPKiPfffi(ptr noundef %0, ptr noundef %1, float noundef nofpclass(nan inf) %2, float noundef nofpclass(nan inf) %3, i32 noundef %4) #8 {
  %6 = alloca ptr, align 8
  %7 = alloca ptr, align 8
  %8 = alloca float, align 4
  %9 = alloca float, align 4
  %10 = alloca i32, align 4
  %11 = alloca i32, align 4
  store ptr %0, ptr %6, align 8, !tbaa !47
  store ptr %1, ptr %7, align 8, !tbaa !48
  store float %2, ptr %8, align 4, !tbaa !50
  store float %3, ptr %9, align 4, !tbaa !50
  store i32 %4, ptr %10, align 4, !tbaa !41
  call void @llvm.lifetime.start.p0(i64 4, ptr %11) #10
  store i32 0, ptr %11, align 4, !tbaa !41
  br label %12

12:                                               ; preds = %30, %5
  %13 = load i32, ptr %11, align 4, !tbaa !41
  %14 = load i32, ptr %10, align 4, !tbaa !41
  %15 = icmp slt i32 %13, %14
  br i1 %15, label %17, label %16

16:                                               ; preds = %12
  call void @llvm.lifetime.end.p0(i64 4, ptr %11) #10
  br label %33

17:                                               ; preds = %12
  %18 = load ptr, ptr %6, align 8, !tbaa !47
  %19 = load i32, ptr %18, align 4, !tbaa !41
  %20 = sitofp i32 %19 to float
  %21 = load float, ptr %8, align 4, !tbaa !50
  %22 = fmul fast float %20, %21
  %23 = load float, ptr %9, align 4, !tbaa !50
  %24 = fadd fast float %22, %23
  %25 = load ptr, ptr %7, align 8, !tbaa !48
  store float %24, ptr %25, align 4, !tbaa !50
  %26 = load ptr, ptr %6, align 8, !tbaa !47
  %27 = getelementptr inbounds nuw i32, ptr %26, i32 1
  store ptr %27, ptr %6, align 8, !tbaa !47
  %28 = load ptr, ptr %7, align 8, !tbaa !48
  %29 = getelementptr inbounds nuw float, ptr %28, i32 1
  store ptr %29, ptr %7, align 8, !tbaa !48
  br label %30

30:                                               ; preds = %17
  %31 = load i32, ptr %11, align 4, !tbaa !41
  %32 = add nsw i32 %31, 1
  store i32 %32, ptr %11, align 4, !tbaa !41
  br label %12, !llvm.loop !64

33:                                               ; preds = %16
  ret void
}

; Function Attrs: alwaysinline mustprogress nounwind uwtable
define linkonce_odr hidden noundef nonnull align 4 dereferenceable(4) ptr @_ZNK4ncnn3MatixEm(ptr noundef nonnull align 8 dereferenceable(72) %0, i64 noundef %1) #3 comdat align 2 {
  %3 = alloca ptr, align 8
  %4 = alloca i64, align 8
  store ptr %0, ptr %3, align 8, !tbaa !37
  store i64 %1, ptr %4, align 8, !tbaa !63
  %5 = load ptr, ptr %3, align 8
  %6 = getelementptr inbounds nuw %"class.ncnn::Mat", ptr %5, i32 0, i32 0
  %7 = load ptr, ptr %6, align 8, !tbaa !55
  %8 = load i64, ptr %4, align 8, !tbaa !63
  %9 = getelementptr inbounds nuw float, ptr %7, i64 %8
  ret ptr %9
}

; Function Attrs: alwaysinline mustprogress nounwind uwtable
define linkonce_odr hidden noundef ptr @_ZN4ncnn3MatcvPT_IfEEv(ptr noundef nonnull align 8 dereferenceable(72) %0) #3 comdat align 2 {
  %2 = alloca ptr, align 8
  store ptr %0, ptr %2, align 8, !tbaa !37
  %3 = load ptr, ptr %2, align 8
  %4 = getelementptr inbounds nuw %"class.ncnn::Mat", ptr %3, i32 0, i32 0
  %5 = load ptr, ptr %4, align 8, !tbaa !55
  ret ptr %5
}

; Function Attrs: alwaysinline mustprogress nounwind uwtable
define linkonce_odr hidden noundef ptr @_ZNK4ncnn3MatcvPKT_IiEEv(ptr noundef nonnull align 8 dereferenceable(72) %0) #3 comdat align 2 {
  %2 = alloca ptr, align 8
  store ptr %0, ptr %2, align 8, !tbaa !37
  %3 = load ptr, ptr %2, align 8
  %4 = getelementptr inbounds nuw %"class.ncnn::Mat", ptr %3, i32 0, i32 0
  %5 = load ptr, ptr %4, align 8, !tbaa !55
  ret ptr %5
}

; Function Attrs: alwaysinline mustprogress uwtable
define linkonce_odr hidden noundef zeroext i1 @_ZNK4ncnn3Mat5emptyEv(ptr noundef nonnull align 8 dereferenceable(72) %0) #5 comdat align 2 {
  %2 = alloca ptr, align 8
  store ptr %0, ptr %2, align 8, !tbaa !37
  %3 = load ptr, ptr %2, align 8
  %4 = getelementptr inbounds nuw %"class.ncnn::Mat", ptr %3, i32 0, i32 0
  %5 = load ptr, ptr %4, align 8, !tbaa !55
  %6 = icmp eq ptr %5, null
  br i1 %6, label %10, label %7

7:                                                ; preds = %1
  %8 = call noundef i64 @_ZNK4ncnn3Mat5totalEv(ptr noundef nonnull align 8 dereferenceable(72) %3)
  %9 = icmp eq i64 %8, 0
  br label %10

10:                                               ; preds = %7, %1
  %11 = phi i1 [ true, %1 ], [ %9, %7 ]
  ret i1 %11
}

; Function Attrs: mustprogress uwtable
define hidden noundef i32 @_ZNK4ncnn10Dequantize7forwardERKNS_3MatERS1_RKNS_6OptionE(ptr noundef nonnull align 8 dereferenceable(360) %0, ptr noundef nonnull align 8 dereferenceable(72) %1, ptr noundef nonnull align 8 dereferenceable(72) %2, ptr noundef nonnull align 8 dereferenceable(64) %3) unnamed_addr #1 align 2 {
  %5 = alloca i32, align 4
  %6 = alloca ptr, align 8
  %7 = alloca ptr, align 8
  %8 = alloca ptr, align 8
  %9 = alloca ptr, align 8
  %10 = alloca i32, align 4
  %11 = alloca i32, align 4
  %12 = alloca i32, align 4
  %13 = alloca i32, align 4
  %14 = alloca i32, align 4
  %15 = alloca ptr, align 8
  %16 = alloca ptr, align 8
  %17 = alloca float, align 4
  %18 = alloca float, align 4
  %19 = call i32 @__kmpc_global_thread_num(ptr @2)
  store ptr %0, ptr %6, align 8, !tbaa !4
  store ptr %1, ptr %7, align 8, !tbaa !37
  store ptr %2, ptr %8, align 8, !tbaa !37
  store ptr %3, ptr %9, align 8, !tbaa !38
  %20 = load ptr, ptr %6, align 8
  call void @llvm.lifetime.start.p0(i64 4, ptr %10) #10
  %21 = load ptr, ptr %7, align 8, !tbaa !37
  %22 = getelementptr inbounds nuw %"class.ncnn::Mat", ptr %21, i32 0, i32 5
  %23 = load i32, ptr %22, align 8, !tbaa !40
  store i32 %23, ptr %10, align 4, !tbaa !41
  call void @llvm.lifetime.start.p0(i64 4, ptr %11) #10
  %24 = load ptr, ptr %7, align 8, !tbaa !37
  %25 = getelementptr inbounds nuw %"class.ncnn::Mat", ptr %24, i32 0, i32 6
  %26 = load i32, ptr %25, align 4, !tbaa !42
  store i32 %26, ptr %11, align 4, !tbaa !41
  call void @llvm.lifetime.start.p0(i64 4, ptr %12) #10
  %27 = load ptr, ptr %7, align 8, !tbaa !37
  %28 = getelementptr inbounds nuw %"class.ncnn::Mat", ptr %27, i32 0, i32 7
  %29 = load i32, ptr %28, align 8, !tbaa !43
  store i32 %29, ptr %12, align 4, !tbaa !41
  call void @llvm.lifetime.start.p0(i64 4, ptr %13) #10
  %30 = load ptr, ptr %7, align 8, !tbaa !37
  %31 = getelementptr inbounds nuw %"class.ncnn::Mat", ptr %30, i32 0, i32 9
  %32 = load i32, ptr %31, align 8, !tbaa !44
  store i32 %32, ptr %13, align 4, !tbaa !41
  %33 = load ptr, ptr %8, align 8, !tbaa !37
  %34 = load ptr, ptr %7, align 8, !tbaa !37
  %35 = load ptr, ptr %9, align 8, !tbaa !38
  %36 = getelementptr inbounds nuw %"class.ncnn::Option", ptr %35, i32 0, i32 2
  %37 = load ptr, ptr %36, align 8, !tbaa !45
  call void @_ZN4ncnn3Mat11create_likeERKS0_PNS_9AllocatorE(ptr noundef nonnull align 8 dereferenceable(72) %33, ptr noundef nonnull align 8 dereferenceable(72) %34, ptr noundef %37)
  %38 = load ptr, ptr %8, align 8, !tbaa !37
  %39 = call noundef zeroext i1 @_ZNK4ncnn3Mat5emptyEv(ptr noundef nonnull align 8 dereferenceable(72) %38)
  br i1 %39, label %40, label %41

40:                                               ; preds = %4
  store i32 -100, ptr %5, align 4
  store i32 1, ptr %14, align 4
  br label %86

41:                                               ; preds = %4
  %42 = load i32, ptr %10, align 4, !tbaa !41
  %43 = icmp eq i32 %42, 1
  br i1 %43, label %44, label %67

44:                                               ; preds = %41
  call void @llvm.lifetime.start.p0(i64 8, ptr %15) #10
  %45 = load ptr, ptr %7, align 8, !tbaa !37
  %46 = call noundef ptr @_ZNK4ncnn3MatcvPKT_IiEEv(ptr noundef nonnull align 8 dereferenceable(72) %45)
  store ptr %46, ptr %15, align 8, !tbaa !47
  call void @llvm.lifetime.start.p0(i64 8, ptr %16) #10
  %47 = load ptr, ptr %8, align 8, !tbaa !37
  %48 = call noundef ptr @_ZN4ncnn3MatcvPT_IfEEv(ptr noundef nonnull align 8 dereferenceable(72) %47)
  store ptr %48, ptr %16, align 8, !tbaa !48
  call void @llvm.lifetime.start.p0(i64 4, ptr %17) #10
  %49 = getelementptr inbounds nuw %"class.ncnn::Dequantize", ptr %20, i32 0, i32 3
  %50 = call noundef nonnull align 4 dereferenceable(4) ptr @_ZNK4ncnn3MatixEm(ptr noundef nonnull align 8 dereferenceable(72) %49, i64 noundef 0)
  %51 = load float, ptr %50, align 4, !tbaa !50
  store float %51, ptr %17, align 4, !tbaa !50
  call void @llvm.lifetime.start.p0(i64 4, ptr %18) #10
  %52 = getelementptr inbounds nuw %"class.ncnn::Dequantize", ptr %20, i32 0, i32 2
  %53 = load i32, ptr %52, align 4, !tbaa !34
  %54 = icmp eq i32 %53, 0
  br i1 %54, label %55, label %56

55:                                               ; preds = %44
  br label %60

56:                                               ; preds = %44
  %57 = getelementptr inbounds nuw %"class.ncnn::Dequantize", ptr %20, i32 0, i32 4
  %58 = call noundef nonnull align 4 dereferenceable(4) ptr @_ZNK4ncnn3MatixEm(ptr noundef nonnull align 8 dereferenceable(72) %57, i64 noundef 0)
  %59 = load float, ptr %58, align 4, !tbaa !50
  br label %60

60:                                               ; preds = %56, %55
  %61 = phi fast float [ 0.000000e+00, %55 ], [ %59, %56 ]
  store float %61, ptr %18, align 4, !tbaa !50
  %62 = load ptr, ptr %15, align 8, !tbaa !47
  %63 = load ptr, ptr %16, align 8, !tbaa !48
  %64 = load float, ptr %17, align 4, !tbaa !50
  %65 = load float, ptr %18, align 4, !tbaa !50
  %66 = load i32, ptr %11, align 4, !tbaa !41
  call void @_ZN4ncnnL10dequantizeEPKiPfffi(ptr noundef %62, ptr noundef %63, float noundef nofpclass(nan inf) %64, float noundef nofpclass(nan inf) %65, i32 noundef %66)
  call void @llvm.lifetime.end.p0(i64 4, ptr %18) #10
  call void @llvm.lifetime.end.p0(i64 4, ptr %17) #10
  call void @llvm.lifetime.end.p0(i64 8, ptr %16) #10
  call void @llvm.lifetime.end.p0(i64 8, ptr %15) #10
  br label %67

67:                                               ; preds = %60, %41
  %68 = load i32, ptr %10, align 4, !tbaa !41
  %69 = icmp eq i32 %68, 2
  br i1 %69, label %70, label %76

70:                                               ; preds = %67
  %71 = load ptr, ptr %9, align 8, !tbaa !38
  %72 = getelementptr inbounds nuw %"class.ncnn::Option", ptr %71, i32 0, i32 1
  %73 = load i32, ptr %72, align 4, !tbaa !52
  call void @__kmpc_push_num_threads(ptr @2, i32 %19, i32 %73)
  %74 = load ptr, ptr %7, align 8, !tbaa !37
  %75 = load ptr, ptr %8, align 8, !tbaa !37
  call void (ptr, i32, ptr, ...) @__kmpc_fork_call(ptr @2, i32 5, ptr @_ZNK4ncnn10Dequantize7forwardERKNS_3MatERS1_RKNS_6OptionE.omp_outlined, ptr %12, ptr %74, ptr %75, ptr %20, ptr %11)
  br label %76

76:                                               ; preds = %70, %67
  %77 = load i32, ptr %10, align 4, !tbaa !41
  %78 = icmp eq i32 %77, 3
  br i1 %78, label %79, label %85

79:                                               ; preds = %76
  %80 = load ptr, ptr %9, align 8, !tbaa !38
  %81 = getelementptr inbounds nuw %"class.ncnn::Option", ptr %80, i32 0, i32 1
  %82 = load i32, ptr %81, align 4, !tbaa !52
  call void @__kmpc_push_num_threads(ptr @2, i32 %19, i32 %82)
  %83 = load ptr, ptr %7, align 8, !tbaa !37
  %84 = load ptr, ptr %8, align 8, !tbaa !37
  call void (ptr, i32, ptr, ...) @__kmpc_fork_call(ptr @2, i32 6, ptr @_ZNK4ncnn10Dequantize7forwardERKNS_3MatERS1_RKNS_6OptionE.omp_outlined.1, ptr %13, ptr %83, ptr %84, ptr %20, ptr %11, ptr %12)
  br label %85

85:                                               ; preds = %79, %76
  store i32 0, ptr %5, align 4
  store i32 1, ptr %14, align 4
  br label %86

86:                                               ; preds = %85, %40
  call void @llvm.lifetime.end.p0(i64 4, ptr %13) #10
  call void @llvm.lifetime.end.p0(i64 4, ptr %12) #10
  call void @llvm.lifetime.end.p0(i64 4, ptr %11) #10
  call void @llvm.lifetime.end.p0(i64 4, ptr %10) #10
  %87 = load i32, ptr %5, align 4
  ret i32 %87
}