; Function Attrs: mustprogress uwtable
define hidden noundef range(i32 -100, 1) i32 @_ZNK4ncnn10Dequantize7forwardERKNS_3MatERS1_RKNS_6OptionE(ptr noundef nonnull align 8 dereferenceable(360) %0, ptr noundef nonnull align 8 dereferenceable(72) %1, ptr noundef nonnull align 8 dereferenceable(72) %2, ptr noundef nonnull readonly align 8 captures(none) dereferenceable(64) %3) unnamed_addr #1 align 2 {
  %5 = alloca i32, align 4
  %6 = alloca i32, align 4
  %7 = alloca i32, align 4
  %8 = tail call i32 @__kmpc_global_thread_num(ptr nonnull @2)
  %9 = getelementptr inbounds nuw i8, ptr %1, i64 40
  %10 = load i32, ptr %9, align 8, !tbaa !37
  call void @llvm.lifetime.start.p0(i64 4, ptr nonnull %5) #9
  %11 = getelementptr inbounds nuw i8, ptr %1, i64 44
  %12 = load i32, ptr %11, align 4, !tbaa !38
  store i32 %12, ptr %5, align 4, !tbaa !42
  call void @llvm.lifetime.start.p0(i64 4, ptr nonnull %6) #9
  %13 = getelementptr inbounds nuw i8, ptr %1, i64 48
  %14 = load i32, ptr %13, align 8, !tbaa !39
  store i32 %14, ptr %6, align 4, !tbaa !42
  call void @llvm.lifetime.start.p0(i64 4, ptr nonnull %7) #9
  %15 = getelementptr inbounds nuw i8, ptr %1, i64 56
  %16 = load i32, ptr %15, align 8, !tbaa !41
  store i32 %16, ptr %7, align 4, !tbaa !42
  %17 = getelementptr inbounds nuw i8, ptr %3, i64 8
  %18 = load ptr, ptr %17, align 8, !tbaa !43
  tail call void @_ZN4ncnn3Mat11create_likeERKS0_PNS_9AllocatorE(ptr noundef nonnull align 8 dereferenceable(72) %2, ptr noundef nonnull align 8 dereferenceable(72) %1, ptr noundef %18)
  %19 = load ptr, ptr %2, align 8, !tbaa !16
  %20 = icmp eq ptr %19, null
  br i1 %20, label %_ZN4ncnnL10dequantizeEPKiPfffi.exit, label %_ZNK4ncnn3Mat5emptyEv.exit

_ZNK4ncnn3Mat5emptyEv.exit:                       ; preds = %4
  %21 = getelementptr inbounds nuw i8, ptr %2, i64 64
  %22 = load i64, ptr %21, align 8, !tbaa !17
  %23 = getelementptr inbounds nuw i8, ptr %2, i64 56
  %24 = load i32, ptr %23, align 8, !tbaa !41
  %25 = sext i32 %24 to i64
  %26 = mul i64 %22, %25
  %27 = icmp eq i64 %26, 0
  br i1 %27, label %_ZN4ncnnL10dequantizeEPKiPfffi.exit, label %28

28:                                               ; preds = %_ZNK4ncnn3Mat5emptyEv.exit
  switch i32 %10, label %_ZN4ncnnL10dequantizeEPKiPfffi.exit [
    i32 1, label %29
    i32 2, label %51
    i32 3, label %54
  ]

29:                                               ; preds = %28
  %30 = load ptr, ptr %1, align 8, !tbaa !16
  %31 = getelementptr inbounds nuw i8, ptr %0, i64 216
  %32 = load ptr, ptr %31, align 8, !tbaa !16
  %33 = load float, ptr %32, align 4, !tbaa !45
  %34 = getelementptr inbounds nuw i8, ptr %0, i64 212
  %35 = load i32, ptr %34, align 4, !tbaa !34
  %36 = icmp eq i32 %35, 0
  br i1 %36, label %41, label %37

37:                                               ; preds = %29
  %38 = getelementptr inbounds nuw i8, ptr %0, i64 288
  %39 = load ptr, ptr %38, align 8, !tbaa !16
  %40 = load float, ptr %39, align 4, !tbaa !45
  br label %41

41:                                               ; preds = %29, %37
  %42 = phi fast float [ %40, %37 ], [ 0.000000e+00, %29 ]
  %43 = icmp sgt i32 %12, 0
  br i1 %43, label %.lr.ph.i, label %_ZN4ncnnL10dequantizeEPKiPfffi.exit

.lr.ph.i:                                         ; preds = %41, %.lr.ph.i
  %.012.i = phi i32 [ %50, %.lr.ph.i ], [ 0, %41 ]
  %.0811.i = phi ptr [ %48, %.lr.ph.i ], [ %30, %41 ]
  %.0910.i = phi ptr [ %49, %.lr.ph.i ], [ %19, %41 ]
  %44 = load i32, ptr %.0811.i, align 4, !tbaa !42
  %45 = sitofp i32 %44 to float
  %46 = fmul fast float %33, %45
  %47 = fadd fast float %46, %42
  store float %47, ptr %.0910.i, align 4, !tbaa !45
  %48 = getelementptr inbounds nuw i8, ptr %.0811.i, i64 4
  %49 = getelementptr inbounds nuw i8, ptr %.0910.i, i64 4
  %50 = add nuw nsw i32 %.012.i, 1
  %exitcond.not.i = icmp eq i32 %50, %12
  br i1 %exitcond.not.i, label %_ZN4ncnnL10dequantizeEPKiPfffi.exit, label %.lr.ph.i, !llvm.loop !47

51:                                               ; preds = %28
  %52 = getelementptr inbounds nuw i8, ptr %3, i64 4
  %53 = load i32, ptr %52, align 4, !tbaa !49
  tail call void @__kmpc_push_num_threads(ptr nonnull @2, i32 %8, i32 %53)
  call void (ptr, i32, ptr, ...) @__kmpc_fork_call(ptr nonnull @2, i32 5, ptr nonnull @_ZNK4ncnn10Dequantize7forwardERKNS_3MatERS1_RKNS_6OptionE.omp_outlined, ptr nonnull %6, ptr nonnull %1, ptr nonnull %2, ptr nonnull %0, ptr nonnull %5)
  br label %_ZN4ncnnL10dequantizeEPKiPfffi.exit

54:                                               ; preds = %28
  %55 = getelementptr inbounds nuw i8, ptr %3, i64 4
  %56 = load i32, ptr %55, align 4, !tbaa !49
  tail call void @__kmpc_push_num_threads(ptr nonnull @2, i32 %8, i32 %56)
  call void (ptr, i32, ptr, ...) @__kmpc_fork_call(ptr nonnull @2, i32 6, ptr nonnull @_ZNK4ncnn10Dequantize7forwardERKNS_3MatERS1_RKNS_6OptionE.omp_outlined.1, ptr nonnull %7, ptr nonnull %1, ptr nonnull %2, ptr nonnull %0, ptr nonnull %5, ptr nonnull %6)
  br label %_ZN4ncnnL10dequantizeEPKiPfffi.exit

_ZN4ncnnL10dequantizeEPKiPfffi.exit:              ; preds = %.lr.ph.i, %4, %51, %41, %54, %28, %_ZNK4ncnn3Mat5emptyEv.exit
  %.0 = phi i32 [ -100, %_ZNK4ncnn3Mat5emptyEv.exit ], [ 0, %28 ], [ 0, %54 ], [ 0, %51 ], [ 0, %41 ], [ -100, %4 ], [ 0, %.lr.ph.i ]
  call void @llvm.lifetime.end.p0(i64 4, ptr nonnull %7) #9
  call void @llvm.lifetime.end.p0(i64 4, ptr nonnull %6) #9
  call void @llvm.lifetime.end.p0(i64 4, ptr nonnull %5) #9
  ret i32 %.0
}